; ModuleID = '31/1052.c'
source_filename = "31/1052.c"
target datalayout = "e-m:e-p270:32:32-p271:32:32-p272:64:64-i64:64-f80:128-n8:16:32:64-S128"
target triple = "x86_64-pc-linux-gnu"

%struct.stu = type { %struct.stu*, [100 x i8] }

@.str = private unnamed_addr constant [3 x i8] c"%s\00", align 1
@.str.1 = private unnamed_addr constant [2 x i8] c"\0A\00", align 1

; Function Attrs: noinline nounwind uwtable
define dso_local void @print(%struct.stu* %0, i32 %1) #0 {
  %3 = alloca %struct.stu*, align 8
  %4 = alloca i32, align 4
  store %struct.stu* %0, %struct.stu** %3, align 8
  store i32 %1, i32* %4, align 4
  %5 = load i32, i32* %4, align 4
  %6 = icmp sgt i32 %5, 0
  br i1 %6, label %7, label %18

7:                                                ; preds = %2
  %8 = load %struct.stu*, %struct.stu** %3, align 8
  %9 = getelementptr inbounds %struct.stu, %struct.stu* %8, i32 0, i32 1
  %10 = getelementptr inbounds [100 x i8], [100 x i8]* %9, i64 0, i64 0
  %11 = call i32 (i8*, ...) @printf(i8* getelementptr inbounds ([3 x i8], [3 x i8]* @.str, i64 0, i64 0), i8* %10)
  %12 = call i32 (i8*, ...) @printf(i8* getelementptr inbounds ([2 x i8], [2 x i8]* @.str.1, i64 0, i64 0))
  %13 = load %struct.stu*, %struct.stu** %3, align 8
  %14 = getelementptr inbounds %struct.stu, %struct.stu* %13, i32 0, i32 0
  %15 = load %struct.stu*, %struct.stu** %14, align 8
  %16 = load i32, i32* %4, align 4
  %17 = sub nsw i32 %16, 1
  call void @print(%struct.stu* %15, i32 %17)
  br label %18

18:                                               ; preds = %7, %2
  ret void
}

declare dso_local i32 @printf(i8*, ...) #1

; Function Attrs: noinline nounwind uwtable
define dso_local i32 @main() #0 {
  %1 = alloca i32, align 4
  %2 = alloca i32, align 4
  %3 = alloca i32, align 4
  %4 = alloca i32, align 4
  %5 = alloca %struct.stu*, align 8
  %6 = alloca %struct.stu*, align 8
  store i32 0, i32* %1, align 4
  store i32 1, i32* %2, align 4
  store i32 100000, i32* %4, align 4
  %7 = call noalias i8* @malloc(i64 100) #3
  %8 = bitcast i8* %7 to %struct.stu*
  store %struct.stu* %8, %struct.stu** %5, align 8
  %9 = load %struct.stu*, %struct.stu** %5, align 8
  %10 = getelementptr inbounds %struct.stu, %struct.stu* %9, i32 0, i32 1
  %11 = getelementptr inbounds [100 x i8], [100 x i8]* %10, i64 0, i64 0
  %12 = call i32 (i8*, ...) bitcast (i32 (...)* @gets to i32 (i8*, ...)*)(i8* %11)
  store i32 0, i32* %3, align 4
  br label %13

13:                                               ; preds = %56, %0
  %14 = load i32, i32* %3, align 4
  %15 = load i32, i32* %4, align 4
  %16 = icmp slt i32 %14, %15
  br i1 %16, label %17, label %59

17:                                               ; preds = %13
  %18 = call noalias i8* @malloc(i64 100) #3
  %19 = bitcast i8* %18 to %struct.stu*
  store %struct.stu* %19, %struct.stu** %6, align 8
  %20 = load %struct.stu*, %struct.stu** %6, align 8
  %21 = getelementptr inbounds %struct.stu, %struct.stu* %20, i32 0, i32 1
  %22 = getelementptr inbounds [100 x i8], [100 x i8]* %21, i64 0, i64 0
  %23 = call i32 (i8*, ...) bitcast (i32 (...)* @gets to i32 (i8*, ...)*)(i8* %22)
  %24 = load %struct.stu*, %struct.stu** %6, align 8
  %25 = getelementptr inbounds %struct.stu, %struct.stu* %24, i32 0, i32 1
  %26 = getelementptr inbounds [100 x i8], [100 x i8]* %25, i64 0, i64 0
  %27 = load i8, i8* %26, align 8
  %28 = sext i8 %27 to i32
  %29 = icmp ne i32 %28, 101
  br i1 %29, label %30, label %51

30:                                               ; preds = %17
  %31 = load %struct.stu*, %struct.stu** %6, align 8
  %32 = getelementptr inbounds %struct.stu, %struct.stu* %31, i32 0, i32 1
  %33 = getelementptr inbounds [100 x i8], [100 x i8]* %32, i64 0, i64 1
  %34 = load i8, i8* %33, align 1
  %35 = sext i8 %34 to i32
  %36 = icmp ne i32 %35, 110
  br i1 %36, label %37, label %51

37:                                               ; preds = %30
  %38 = load %struct.stu*, %struct.stu** %6, align 8
  %39 = getelementptr inbounds %struct.stu, %struct.stu* %38, i32 0, i32 1
  %40 = getelementptr inbounds [100 x i8], [100 x i8]* %39, i64 0, i64 2
  %41 = load i8, i8* %40, align 2
  %42 = sext i8 %41 to i32
  %43 = icmp ne i32 %42, 100
  br i1 %43, label %44, label %51

44:                                               ; preds = %37
  %45 = load %struct.stu*, %struct.stu** %5, align 8
  %46 = load %struct.stu*, %struct.stu** %6, align 8
  %47 = getelementptr inbounds %struct.stu, %struct.stu* %46, i32 0, i32 0
  store %struct.stu* %45, %struct.stu** %47, align 8
  %48 = load %struct.stu*, %struct.stu** %6, align 8
  store %struct.stu* %48, %struct.stu** %5, align 8
  %49 = load i32, i32* %2, align 4
  %50 = add nsw i32 %49, 1
  store i32 %50, i32* %2, align 4
  br label %55

51:                                               ; preds = %37, %30, %17
  %52 = load %struct.stu*, %struct.stu** %5, align 8
  %53 = load %struct.stu*, %struct.stu** %6, align 8
  %54 = getelementptr inbounds %struct.stu, %struct.stu* %53, i32 0, i32 0
  store %struct.stu* %52, %struct.stu** %54, align 8
  br label %59

55:                                               ; preds = %44
  br label %56

56:                                               ; preds = %55
  %57 = load i32, i32* %3, align 4
  %58 = add nsw i32 %57, 1
  store i32 %58, i32* %3, align 4
  br label %13

59:                                               ; preds = %51, %13
  %60 = load %struct.stu*, %struct.stu** %6, align 8
  %61 = getelementptr inbounds %struct.stu, %struct.stu* %60, i32 0, i32 0
  %62 = load %struct.stu*, %struct.stu** %61, align 8
  %63 = load i32, i32* %2, align 4
  call void @print(%struct.stu* %62, i32 %63)
  ret i32 0
}

; Function Attrs: nounwind
declare dso_local noalias i8* @malloc(i64) #2

declare dso_local i32 @gets(...) #1


!llvm.module.flags = !{!0}
!llvm.ident = !{!1}

!0 = !{i32 1, !"wchar_size", i32 4}
!1 = !{!"clang version 10.0.0-4ubuntu1 "}
